target datalayout = "e-m:e-p270:32:32-p271:32:32-p272:64:64-i64:64-i128:128-f80:128-n8:16:32:64-S128"
target triple = "x86_64-pc-linux-gnu"

%union.imath_half_uif = type { i32 }

; Function Attrs: inlinehint nounwind uwtable
define internal float @imath_half_to_float(i16 noundef zeroext %0) #2 {
  %2 = alloca i16, align 2
  %3 = alloca %union.imath_half_uif, align 4
  %4 = alloca i32, align 4
  %5 = alloca i32, align 4
  store i16 %0, ptr %2, align 2, !tbaa !44
  call void @llvm.lifetime.start.p0(i64 4, ptr %3) #6
  call void @llvm.lifetime.start.p0(i64 4, ptr %4) #6
  %6 = load i16, ptr %2, align 2, !tbaa !44
  %7 = zext i16 %6 to i32
  %8 = shl i32 %7, 17
  %9 = lshr i32 %8, 4
  store i32 %9, ptr %4, align 4, !tbaa !8
  %10 = load i16, ptr %2, align 2, !tbaa !44
  %11 = zext i16 %10 to i32
  %12 = ashr i32 %11, 15
  %13 = shl i32 %12, 31
  store i32 %13, ptr %3, align 4, !tbaa !10
  %14 = load i32, ptr %4, align 4, !tbaa !8
  %15 = icmp uge i32 %14, 8388608
  %16 = zext i1 %15 to i32
  %17 = sext i32 %16 to i64
  %18 = call i64 @llvm.expect.i64(i64 %17, i64 1)
  %19 = icmp ne i64 %18, 0
  br i1 %19, label %20, label %37

20:                                               ; preds = %1
  %21 = load i32, ptr %4, align 4, !tbaa !8
  %22 = load i32, ptr %3, align 4, !tbaa !10
  %23 = or i32 %22, %21
  store i32 %23, ptr %3, align 4, !tbaa !10
  %24 = load i32, ptr %4, align 4, !tbaa !8
  %25 = icmp ult i32 %24, 260046848
  %26 = zext i1 %25 to i32
  %27 = sext i32 %26 to i64
  %28 = call i64 @llvm.expect.i64(i64 %27, i64 1)
  %29 = icmp ne i64 %28, 0
  br i1 %29, label %30, label %33

30:                                               ; preds = %20
  %31 = load i32, ptr %3, align 4, !tbaa !10
  %32 = add i32 %31, 939524096
  store i32 %32, ptr %3, align 4, !tbaa !10
  br label %36

33:                                               ; preds = %20
  %34 = load i32, ptr %3, align 4, !tbaa !10
  %35 = or i32 %34, 2139095040
  store i32 %35, ptr %3, align 4, !tbaa !10
  br label %36

36:                                               ; preds = %33, %30
  br label %57

37:                                               ; preds = %1
  %38 = load i32, ptr %4, align 4, !tbaa !8
  %39 = icmp ne i32 %38, 0
  br i1 %39, label %40, label %56

40:                                               ; preds = %37
  call void @llvm.lifetime.start.p0(i64 4, ptr %5) #6
  %41 = load i32, ptr %4, align 4, !tbaa !8
  %42 = call i32 @llvm.ctlz.i32(i32 %41, i1 true)
  store i32 %42, ptr %5, align 4, !tbaa !8
  %43 = load i32, ptr %5, align 4, !tbaa !8
  %44 = sub i32 %43, 8
  store i32 %44, ptr %5, align 4, !tbaa !8
  %45 = load i32, ptr %3, align 4, !tbaa !10
  %46 = or i32 %45, 947912704
  store i32 %46, ptr %3, align 4, !tbaa !10
  %47 = load i32, ptr %4, align 4, !tbaa !8
  %48 = load i32, ptr %5, align 4, !tbaa !8
  %49 = shl i32 %47, %48
  %50 = load i32, ptr %3, align 4, !tbaa !10
  %51 = or i32 %50, %49
  store i32 %51, ptr %3, align 4, !tbaa !10
  %52 = load i32, ptr %5, align 4, !tbaa !8
  %53 = shl i32 %52, 23
  %54 = load i32, ptr %3, align 4, !tbaa !10
  %55 = sub i32 %54, %53
  store i32 %55, ptr %3, align 4, !tbaa !10
  call void @llvm.lifetime.end.p0(i64 4, ptr %5) #6
  br label %56

56:                                               ; preds = %40, %37
  br label %57

57:                                               ; preds = %56, %36
  %58 = load float, ptr %3, align 4, !tbaa !10
  call void @llvm.lifetime.end.p0(i64 4, ptr %4) #6
  call void @llvm.lifetime.end.p0(i64 4, ptr %3) #6
  ret float %58
}

; Function Attrs: inlinehint nounwind uwtable
define internal float @half_to_float(i16 noundef zeroext %0) #2 {
  %2 = alloca i16, align 2
  store i16 %0, ptr %2, align 2, !tbaa !44
  %3 = load i16, ptr %2, align 2, !tbaa !44
  %4 = call float @imath_half_to_float(i16 noundef zeroext %3)
  ret float %4
}

; Function Attrs: inlinehint nounwind uwtable
define internal void @half_to_float4(ptr noundef %0, ptr noundef %1) #2 {
  %3 = alloca ptr, align 8
  %4 = alloca ptr, align 8
  store ptr %0, ptr %3, align 8, !tbaa !73
  store ptr %1, ptr %4, align 8, !tbaa !42
  %5 = load ptr, ptr %4, align 8, !tbaa !42
  %6 = getelementptr inbounds i16, ptr %5, i64 0
  %7 = load i16, ptr %6, align 2, !tbaa !44
  %8 = call float @half_to_float(i16 noundef zeroext %7)
  %9 = load ptr, ptr %3, align 8, !tbaa !73
  %10 = getelementptr inbounds float, ptr %9, i64 0
  store float %8, ptr %10, align 4, !tbaa !46
  %11 = load ptr, ptr %4, align 8, !tbaa !42
  %12 = getelementptr inbounds i16, ptr %11, i64 1
  %13 = load i16, ptr %12, align 2, !tbaa !44
  %14 = call float @half_to_float(i16 noundef zeroext %13)
  %15 = load ptr, ptr %3, align 8, !tbaa !73
  %16 = getelementptr inbounds float, ptr %15, i64 1
  store float %14, ptr %16, align 4, !tbaa !46
  %17 = load ptr, ptr %4, align 8, !tbaa !42
  %18 = getelementptr inbounds i16, ptr %17, i64 2
  %19 = load i16, ptr %18, align 2, !tbaa !44
  %20 = call float @half_to_float(i16 noundef zeroext %19)
  %21 = load ptr, ptr %3, align 8, !tbaa !73
  %22 = getelementptr inbounds float, ptr %21, i64 2
  store float %20, ptr %22, align 4, !tbaa !46
  %23 = load ptr, ptr %4, align 8, !tbaa !42
  %24 = getelementptr inbounds i16, ptr %23, i64 3
  %25 = load i16, ptr %24, align 2, !tbaa !44
  %26 = call float @half_to_float(i16 noundef zeroext %25)
  %27 = load ptr, ptr %3, align 8, !tbaa !73
  %28 = getelementptr inbounds float, ptr %27, i64 3
  store float %26, ptr %28, align 4, !tbaa !46
  ret void
}