; Function Attrs: inlinehint mustprogress nofree norecurse nosync nounwind willreturn memory(argmem: readwrite) uwtable
define internal fastcc void @half_to_float4(ptr noundef writeonly captures(none) initializes((0, 16)) %0, ptr noundef readonly captures(none) %1) unnamed_addr #5 {
  %3 = load i16, ptr %1, align 2, !tbaa !36
  %4 = zext i16 %3 to i32
  %5 = shl nuw nsw i32 %4, 13
  %6 = and i32 %5, 268427264
  %.signext.i.i = sext i16 %3 to i32
  %7 = and i32 %.signext.i.i, -2147483648
  %8 = icmp samesign ugt i32 %6, 8388607
  br i1 %8, label %9, label %16, !prof !38

9:                                                ; preds = %2
  %10 = or disjoint i32 %6, %7
  %11 = icmp samesign ult i32 %6, 260046848
  br i1 %11, label %12, label %14, !prof !38

12:                                               ; preds = %9
  %13 = add nuw nsw i32 %10, 939524096
  br label %half_to_float.exit

14:                                               ; preds = %9
  %15 = or i32 %10, 2139095040
  br label %half_to_float.exit

16:                                               ; preds = %2
  %.not.i.i = icmp eq i32 %6, 0
  br i1 %.not.i.i, label %half_to_float.exit, label %17

17:                                               ; preds = %16
  %18 = tail call range(i32 9, 33) i32 @llvm.ctlz.i32(i32 %6, i1 true)
  %19 = add nsw i32 %18, -8
  %20 = shl i32 %6, %19
  %21 = or i32 %7, %20
  %22 = or i32 %21, 947912704
  %23 = shl nuw nsw i32 %19, 23
  %24 = sub nuw i32 %22, %23
  br label %half_to_float.exit

half_to_float.exit:                               ; preds = %12, %14, %16, %17
  %.sroa.0.0.i.i = phi i32 [ %13, %12 ], [ %15, %14 ], [ %24, %17 ], [ %7, %16 ]
  store i32 %.sroa.0.0.i.i, ptr %0, align 4, !tbaa !39
  %25 = getelementptr inbounds nuw i8, ptr %1, i64 2
  %26 = load i16, ptr %25, align 2, !tbaa !36
  %27 = zext i16 %26 to i32
  %28 = shl nuw nsw i32 %27, 13
  %29 = and i32 %28, 268427264
  %.signext.i.i8 = sext i16 %26 to i32
  %30 = and i32 %.signext.i.i8, -2147483648
  %31 = icmp samesign ugt i32 %29, 8388607
  br i1 %31, label %32, label %39, !prof !38

32:                                               ; preds = %half_to_float.exit
  %33 = or disjoint i32 %29, %30
  %34 = icmp samesign ult i32 %29, 260046848
  br i1 %34, label %35, label %37, !prof !38

35:                                               ; preds = %32
  %36 = add nuw nsw i32 %33, 939524096
  br label %half_to_float.exit11

37:                                               ; preds = %32
  %38 = or i32 %33, 2139095040
  br label %half_to_float.exit11

39:                                               ; preds = %half_to_float.exit
  %.not.i.i9 = icmp eq i32 %29, 0
  br i1 %.not.i.i9, label %half_to_float.exit11, label %40

40:                                               ; preds = %39
  %41 = tail call range(i32 9, 33) i32 @llvm.ctlz.i32(i32 %29, i1 true)
  %42 = add nsw i32 %41, -8
  %43 = shl i32 %29, %42
  %44 = or i32 %30, %43
  %45 = or i32 %44, 947912704
  %46 = shl nuw nsw i32 %42, 23
  %47 = sub nuw i32 %45, %46
  br label %half_to_float.exit11

half_to_float.exit11:                             ; preds = %35, %37, %39, %40
  %.sroa.0.0.i.i10 = phi i32 [ %36, %35 ], [ %38, %37 ], [ %47, %40 ], [ %30, %39 ]
  %48 = getelementptr inbounds nuw i8, ptr %0, i64 4
  store i32 %.sroa.0.0.i.i10, ptr %48, align 4, !tbaa !39
  %49 = getelementptr inbounds nuw i8, ptr %1, i64 4
  %50 = load i16, ptr %49, align 2, !tbaa !36
  %51 = zext i16 %50 to i32
  %52 = shl nuw nsw i32 %51, 13
  %53 = and i32 %52, 268427264
  %.signext.i.i12 = sext i16 %50 to i32
  %54 = and i32 %.signext.i.i12, -2147483648
  %55 = icmp samesign ugt i32 %53, 8388607
  br i1 %55, label %56, label %63, !prof !38

56:                                               ; preds = %half_to_float.exit11
  %57 = or disjoint i32 %53, %54
  %58 = icmp samesign ult i32 %53, 260046848
  br i1 %58, label %59, label %61, !prof !38

59:                                               ; preds = %56
  %60 = add nuw nsw i32 %57, 939524096
  br label %half_to_float.exit15

61:                                               ; preds = %56
  %62 = or i32 %57, 2139095040
  br label %half_to_float.exit15

63:                                               ; preds = %half_to_float.exit11
  %.not.i.i13 = icmp eq i32 %53, 0
  br i1 %.not.i.i13, label %half_to_float.exit15, label %64

64:                                               ; preds = %63
  %65 = tail call range(i32 9, 33) i32 @llvm.ctlz.i32(i32 %53, i1 true)
  %66 = add nsw i32 %65, -8
  %67 = shl i32 %53, %66
  %68 = or i32 %54, %67
  %69 = or i32 %68, 947912704
  %70 = shl nuw nsw i32 %66, 23
  %71 = sub nuw i32 %69, %70
  br label %half_to_float.exit15

half_to_float.exit15:                             ; preds = %59, %61, %63, %64
  %.sroa.0.0.i.i14 = phi i32 [ %60, %59 ], [ %62, %61 ], [ %71, %64 ], [ %54, %63 ]
  %72 = getelementptr inbounds nuw i8, ptr %0, i64 8
  store i32 %.sroa.0.0.i.i14, ptr %72, align 4, !tbaa !39
  %73 = getelementptr inbounds nuw i8, ptr %1, i64 6
  %74 = load i16, ptr %73, align 2, !tbaa !36
  %75 = zext i16 %74 to i32
  %76 = shl nuw nsw i32 %75, 13
  %77 = and i32 %76, 268427264
  %.signext.i.i16 = sext i16 %74 to i32
  %78 = and i32 %.signext.i.i16, -2147483648
  %79 = icmp samesign ugt i32 %77, 8388607
  br i1 %79, label %80, label %87, !prof !38

80:                                               ; preds = %half_to_float.exit15
  %81 = or disjoint i32 %77, %78
  %82 = icmp samesign ult i32 %77, 260046848
  br i1 %82, label %83, label %85, !prof !38

83:                                               ; preds = %80
  %84 = add nuw nsw i32 %81, 939524096
  br label %half_to_float.exit19

85:                                               ; preds = %80
  %86 = or i32 %81, 2139095040
  br label %half_to_float.exit19

87:                                               ; preds = %half_to_float.exit15
  %.not.i.i17 = icmp eq i32 %77, 0
  br i1 %.not.i.i17, label %half_to_float.exit19, label %88

88:                                               ; preds = %87
  %89 = tail call range(i32 9, 33) i32 @llvm.ctlz.i32(i32 %77, i1 true)
  %90 = add nsw i32 %89, -8
  %91 = shl i32 %77, %90
  %92 = or i32 %78, %91
  %93 = or i32 %92, 947912704
  %94 = shl nuw nsw i32 %90, 23
  %95 = sub nuw i32 %93, %94
  br label %half_to_float.exit19

half_to_float.exit19:                             ; preds = %83, %85, %87, %88
  %.sroa.0.0.i.i18 = phi i32 [ %84, %83 ], [ %86, %85 ], [ %95, %88 ], [ %78, %87 ]
  %96 = getelementptr inbounds nuw i8, ptr %0, i64 12
  store i32 %.sroa.0.0.i.i18, ptr %96, align 4, !tbaa !39
  ret void
}